; Function Attrs: nounwind uwtable
define i32 @Abc_ObjReverseLevel(ptr noundef readonly captures(none) %0) local_unnamed_addr #3 {
  %2 = load ptr, ptr %0, align 8
  %3 = getelementptr inbounds nuw i8, ptr %2, i64 288
  %4 = load ptr, ptr %3, align 8
  %5 = getelementptr inbounds nuw i8, ptr %0, i64 16
  %6 = load i32, ptr %5, align 8
  %7 = add nsw i32 %6, 1
  tail call fastcc void @Vec_IntFillExtra(ptr noundef %4, i32 noundef %7)
  %8 = load ptr, ptr %3, align 8
  %9 = load i32, ptr %5, align 8
  %10 = getelementptr i8, ptr %8, i64 8
  %.val = load ptr, ptr %10, align 8
  %11 = sext i32 %9 to i64
  %12 = getelementptr inbounds i32, ptr %.val, i64 %11
  %13 = load i32, ptr %12, align 4
  ret i32 %13
}